; Function Attrs: mustprogress uwtable
define void @_ZN19OpenColorIO_v2_4dev20DynamicPropertyValue8AsDoubleERSt10shared_ptrINS_15DynamicPropertyEE(ptr noalias sret(%"class.std::shared_ptr") align 8 %agg.result, ptr nocapture noundef nonnull readonly align 8 dereferenceable(16) %prop) local_unnamed_addr #0 personality ptr @__gxx_personality_v0 {
entry:
  tail call void @llvm.experimental.noalias.scope.decl(metadata !4)
  %0 = load ptr, ptr %prop, align 8, !noalias !4
  %1 = icmp eq ptr %0, null
  br i1 %1, label %if.end.i, label %dynamic_cast.end.i

dynamic_cast.end.i:                               ; preds = %entry
  %2 = tail call ptr @__dynamic_cast(ptr nonnull %0, ptr nonnull @_ZTIN19OpenColorIO_v2_4dev15DynamicPropertyE, ptr nonnull @_ZTIN19OpenColorIO_v2_4dev21DynamicPropertyDoubleE, i64 -2) #20, !noalias !4
  %tobool.not.i = icmp eq ptr %2, null
  br i1 %tobool.not.i, label %if.end.i, label %if.then.i

if.then.i:                                        ; preds = %dynamic_cast.end.i
  store ptr %2, ptr %agg.result, align 8, !alias.scope !4
  %_M_refcount.i.i.i = getelementptr inbounds i8, ptr %agg.result, i64 8
  %_M_refcount2.i.i.i = getelementptr inbounds i8, ptr %prop, i64 8
  %3 = load ptr, ptr %_M_refcount2.i.i.i, align 8, !noalias !4
  store ptr %3, ptr %_M_refcount.i.i.i, align 8, !alias.scope !4
  %cmp.not.i.i.i.i = icmp eq ptr %3, null
  br i1 %cmp.not.i.i.i.i, label %nrvo.skipdtor, label %if.then.i.i.i.i

if.then.i.i.i.i:                                  ; preds = %if.then.i
  %_M_use_count.i.i.i.i.i = getelementptr inbounds i8, ptr %3, i64 8
  %4 = load i8, ptr @__libc_single_threaded, align 1, !noalias !4
  %tobool.i.i.not.i.i.i.i.i = icmp eq i8 %4, 0
  br i1 %tobool.i.i.not.i.i.i.i.i, label %_ZSt20dynamic_pointer_castIN19OpenColorIO_v2_4dev21DynamicPropertyDoubleENS0_15DynamicPropertyEESt10shared_ptrIT_ERKS3_IT0_E.exitthread-pre-split, label %if.then.i.i.i.i.i.i

if.then.i.i.i.i.i.i:                              ; preds = %if.then.i.i.i.i
  %5 = load i32, ptr %_M_use_count.i.i.i.i.i, align 4, !noalias !4
  %add.i.i.i.i.i.i = add nsw i32 %5, 1
  store i32 %add.i.i.i.i.i.i, ptr %_M_use_count.i.i.i.i.i, align 4, !noalias !4
  br label %nrvo.skipdtor

if.end.i:                                         ; preds = %dynamic_cast.end.i, %entry
  tail call void @llvm.memset.p0.i64(ptr noundef nonnull align 8 dereferenceable(16) %agg.result, i8 0, i64 16, i1 false), !alias.scope !4
  br label %if.end

_ZSt20dynamic_pointer_castIN19OpenColorIO_v2_4dev21DynamicPropertyDoubleENS0_15DynamicPropertyEESt10shared_ptrIT_ERKS3_IT0_E.exitthread-pre-split: ; preds = %if.then.i.i.i.i
  %6 = atomicrmw volatile add ptr %_M_use_count.i.i.i.i.i, i32 1 acq_rel, align 4, !noalias !4
  %.pr.pre = load ptr, ptr %agg.result, align 8
  %7 = icmp eq ptr %.pr.pre, null
  br i1 %7, label %if.end, label %nrvo.skipdtor

if.end:                                           ; preds = %if.end.i, %_ZSt20dynamic_pointer_castIN19OpenColorIO_v2_4dev21DynamicPropertyDoubleENS0_15DynamicPropertyEESt10shared_ptrIT_ERKS3_IT0_E.exitthread-pre-split
  %exception = tail call ptr @__cxa_allocate_exception(i64 16) #20
  invoke void @_ZN19OpenColorIO_v2_4dev9ExceptionC1EPKc(ptr noundef nonnull align 8 dereferenceable(16) %exception, ptr noundef nonnull @.str)
          to label %invoke.cont unwind label %lpad

invoke.cont:                                      ; preds = %if.end
  invoke void @__cxa_throw(ptr nonnull %exception, ptr nonnull @_ZTIN19OpenColorIO_v2_4dev9ExceptionE, ptr nonnull @_ZN19OpenColorIO_v2_4dev9ExceptionD1Ev) #21
          to label %unreachable unwind label %lpad1

lpad:                                             ; preds = %if.end
  %8 = landingpad { ptr, i32 }
          cleanup
  tail call void @__cxa_free_exception(ptr %exception) #20
  br label %ehcleanup

lpad1:                                            ; preds = %invoke.cont
  %9 = landingpad { ptr, i32 }
          cleanup
  br label %ehcleanup

nrvo.skipdtor:                                    ; preds = %if.then.i, %if.then.i.i.i.i.i.i, %_ZSt20dynamic_pointer_castIN19OpenColorIO_v2_4dev21DynamicPropertyDoubleENS0_15DynamicPropertyEESt10shared_ptrIT_ERKS3_IT0_E.exitthread-pre-split
  ret void

ehcleanup:                                        ; preds = %lpad1, %lpad
  %.pn = phi { ptr, i32 } [ %9, %lpad1 ], [ %8, %lpad ]
  tail call void @_ZNSt10shared_ptrIN19OpenColorIO_v2_4dev21DynamicPropertyDoubleEED2Ev(ptr noundef nonnull align 8 dereferenceable(16) %agg.result) #20
  resume { ptr, i32 } %.pn

unreachable:                                      ; preds = %invoke.cont
  unreachable
}